###############################################################################
#                                                                             #
# IAR C/C++ Compiler V8.10.3.10338/W32 for 8051         14/May/2021  11:26:08 #
# Copyright 2004-2011 IAR Systems AB.                                         #
#                                                                             #
#    Core               =  plain                                              #
#    Code model         =  banked                                             #
#    Data model         =  large                                              #
#    Calling convention =  xdata reentrant                                    #
#    Constant location  =  data_rom                                           #
#    Dptr setup         =  1,16                                               #
#    Source file        =  C:\Users\acer\Desktop\ZStack-CC2530-2.3.0-1.4.0\Pr #
#                          ojects\zstack\Samples\GenericApp\Source\Enddevice. #
#                          c                                                  #
#    Command line       =  -f C:\Users\acer\Desktop\ZStack-CC2530-2.3.0-1.4.0 #
#                          \Projects\zstack\Samples\GenericApp\CC2530DB\..\.. #
#                          \..\Tools\CC2530DB\f8wEndev.cfg (-DCPU32MHZ        #
#                          -DROOT=__near_func -DBLINK_LEDS) -f                #
#                          C:\Users\acer\Desktop\ZStack-CC2530-2.3.0-1.4.0\Pr #
#                          ojects\zstack\Samples\GenericApp\CC2530DB\..\..\.. #
#                          \Tools\CC2530DB\f8wConfig.cfg (-DSECURE=0          #
#                          -DZG_SECURE_DYNAMIC=0 -DREFLECTOR                  #
#                          -DDEFAULT_CHANLIST=0x00100000                      #
#                          -DZDAPP_CONFIG_PAN_ID=0x100A                       #
#                          -DNWK_START_DELAY=100 -DEXTENDED_JOINING_RANDOM_MA #
#                          SK=0x007F -DBEACON_REQUEST_DELAY=100               #
#                          -DBEACON_REQ_DELAY_MASK=0x00FF                     #
#                          -DROUTE_EXPIRY_TIME=30 -DAPSC_ACK_WAIT_DURATION_PO #
#                          LLED=3000 -DNWK_INDIRECT_MSG_TIMEOUT=7             #
#                          -DMAX_RREQ_ENTRIES=8 -DAPSC_MAX_FRAME_RETRIES=3    #
#                          -DNWK_MAX_DATA_RETRIES=2                           #
#                          -DMAX_POLL_FAILURE_RETRIES=2 -DMAX_BCAST=9         #
#                          -DAPS_MAX_GROUPS=16 -DMAX_RTG_ENTRIES=40           #
#                          -DNWK_MAX_BINDING_ENTRIES=4                        #
#                          -DMAX_BINDING_CLUSTER_IDS=4 "-DDEFAULT_KEY={0x01,  #
#                          0x03, 0x05, 0x07, 0x09, 0x0B, 0x0D, 0x0F, 0x00,    #
#                          0x02, 0x04, 0x06, 0x08, 0x0A, 0x0C, 0x0D}"         #
#                          -DMAC_MAX_FRAME_SIZE=116 "-DCONST=const __code"    #
#                          -DGENERIC=__generic -DRFD_RCVC_ALWAYS_ON=FALSE     #
#                          -DPOLL_RATE=1000 -DQUEUED_POLL_RATE=100            #
#                          -DRESPONSE_POLL_RATE=100) -DREJOIN_POLL_RATE=440   #
#                          C:\Users\acer\Desktop\ZStack-CC2530-2.3.0-1.4.0\Pr #
#                          ojects\zstack\Samples\GenericApp\Source\Enddevice. #
#                          c -D NWK_AUTO_POLL -D ZTOOL_P1 -D MT_TASK -D       #
#                          MT_SYS_FUNC -D MT_ZDO_FUNC -D LCD_SUPPORTED=DEBUG  #
#                          -D xPOWER_SAVING -lC C:\Users\acer\Desktop\ZStack- #
#                          CC2530-2.3.0-1.4.0\Projects\zstack\Samples\Generic #
#                          App\CC2530DB\EndDeviceEB\List\ -lA                 #
#                          C:\Users\acer\Desktop\ZStack-CC2530-2.3.0-1.4.0\Pr #
#                          ojects\zstack\Samples\GenericApp\CC2530DB\EndDevic #
#                          eEB\List\ --diag_suppress Pe001,Pa010 -o           #
#                          C:\Users\acer\Desktop\ZStack-CC2530-2.3.0-1.4.0\Pr #
#                          ojects\zstack\Samples\GenericApp\CC2530DB\EndDevic #
#                          eEB\Obj\ -e --debug --core=plain --dptr=16,1       #
#                          --data_model=large --code_model=banked             #
#                          --calling_convention=xdata_reentrant               #
#                          --place_constants=data_rom --nr_virtual_regs 16    #
#                          -I C:\Users\acer\Desktop\ZStack-CC2530-2.3.0-1.4.0 #
#                          \Projects\zstack\Samples\GenericApp\CC2530DB\ -I   #
#                          C:\Users\acer\Desktop\ZStack-CC2530-2.3.0-1.4.0\Pr #
#                          ojects\zstack\Samples\GenericApp\CC2530DB\..\SOURC #
#                          E\ -I C:\Users\acer\Desktop\ZStack-CC2530-2.3.0-1. #
#                          4.0\Projects\zstack\Samples\GenericApp\CC2530DB\.. #
#                          \..\..\ZMAIN\TI2530DB\ -I                          #
#                          C:\Users\acer\Desktop\ZStack-CC2530-2.3.0-1.4.0\Pr #
#                          ojects\zstack\Samples\GenericApp\CC2530DB\..\..\.. #
#                          \..\..\COMPONENTS\MT\ -I                           #
#                          C:\Users\acer\Desktop\ZStack-CC2530-2.3.0-1.4.0\Pr #
#                          ojects\zstack\Samples\GenericApp\CC2530DB\..\..\.. #
#                          \..\..\COMPONENTS\HAL\INCLUDE\ -I                  #
#                          C:\Users\acer\Desktop\ZStack-CC2530-2.3.0-1.4.0\Pr #
#                          ojects\zstack\Samples\GenericApp\CC2530DB\..\..\.. #
#                          \..\..\COMPONENTS\HAL\TARGET\CC2530EB\ -I          #
#                          C:\Users\acer\Desktop\ZStack-CC2530-2.3.0-1.4.0\Pr #
#                          ojects\zstack\Samples\GenericApp\CC2530DB\..\..\.. #
#                          \..\..\COMPONENTS\OSAL\MCU\CCSOC\ -I               #
#                          C:\Users\acer\Desktop\ZStack-CC2530-2.3.0-1.4.0\Pr #
#                          ojects\zstack\Samples\GenericApp\CC2530DB\..\..\.. #
#                          \..\..\COMPONENTS\OSAL\INCLUDE\ -I                 #
#                          C:\Users\acer\Desktop\ZStack-CC2530-2.3.0-1.4.0\Pr #
#                          ojects\zstack\Samples\GenericApp\CC2530DB\..\..\.. #
#                          \..\..\COMPONENTS\STACK\AF\ -I                     #
#                          C:\Users\acer\Desktop\ZStack-CC2530-2.3.0-1.4.0\Pr #
#                          ojects\zstack\Samples\GenericApp\CC2530DB\..\..\.. #
#                          \..\..\COMPONENTS\STACK\NWK\ -I                    #
#                          C:\Users\acer\Desktop\ZStack-CC2530-2.3.0-1.4.0\Pr #
#                          ojects\zstack\Samples\GenericApp\CC2530DB\..\..\.. #
#                          \..\..\COMPONENTS\STACK\SEC\ -I                    #
#                          C:\Users\acer\Desktop\ZStack-CC2530-2.3.0-1.4.0\Pr #
#                          ojects\zstack\Samples\GenericApp\CC2530DB\..\..\.. #
#                          \..\..\COMPONENTS\STACK\SAPI\ -I                   #
#                          C:\Users\acer\Desktop\ZStack-CC2530-2.3.0-1.4.0\Pr #
#                          ojects\zstack\Samples\GenericApp\CC2530DB\..\..\.. #
#                          \..\..\COMPONENTS\STACK\SYS\ -I                    #
#                          C:\Users\acer\Desktop\ZStack-CC2530-2.3.0-1.4.0\Pr #
#                          ojects\zstack\Samples\GenericApp\CC2530DB\..\..\.. #
#                          \..\..\COMPONENTS\STACK\ZDO\ -I                    #
#                          C:\Users\acer\Desktop\ZStack-CC2530-2.3.0-1.4.0\Pr #
#                          ojects\zstack\Samples\GenericApp\CC2530DB\..\..\.. #
#                          \..\..\COMPONENTS\ZMAC\F8W\ -I                     #
#                          C:\Users\acer\Desktop\ZStack-CC2530-2.3.0-1.4.0\Pr #
#                          ojects\zstack\Samples\GenericApp\CC2530DB\..\..\.. #
#                          \..\..\COMPONENTS\ZMAC\ -I                         #
#                          C:\Users\acer\Desktop\ZStack-CC2530-2.3.0-1.4.0\Pr #
#                          ojects\zstack\Samples\GenericApp\CC2530DB\..\..\.. #
#                          \..\..\COMPONENTS\SERVICES\SADDR\ -I               #
#                          C:\Users\acer\Desktop\ZStack-CC2530-2.3.0-1.4.0\Pr #
#                          ojects\zstack\Samples\GenericApp\CC2530DB\..\..\.. #
#                          \..\..\COMPONENTS\SERVICES\SDATA\ -I               #
#                          C:\Users\acer\Desktop\ZStack-CC2530-2.3.0-1.4.0\Pr #
#                          ojects\zstack\Samples\GenericApp\CC2530DB\..\..\.. #
#                          \..\..\COMPONENTS\MAC\INCLUDE\ -I                  #
#                          C:\Users\acer\Desktop\ZStack-CC2530-2.3.0-1.4.0\Pr #
#                          ojects\zstack\Samples\GenericApp\CC2530DB\..\..\.. #
#                          \..\..\COMPONENTS\MAC\HIGH_LEVEL\ -I               #
#                          C:\Users\acer\Desktop\ZStack-CC2530-2.3.0-1.4.0\Pr #
#                          ojects\zstack\Samples\GenericApp\CC2530DB\..\..\.. #
#                          \..\..\COMPONENTS\MAC\LOW_LEVEL\srf04\ -I          #
#                          C:\Users\acer\Desktop\ZStack-CC2530-2.3.0-1.4.0\Pr #
#                          ojects\zstack\Samples\GenericApp\CC2530DB\..\..\.. #
#                          \..\..\COMPONENTS\MAC\LOW_LEVEL\srf04\SINGLE_CHIP\ #
#                           -Ohz --require_prototypes                         #
#    List file          =  C:\Users\acer\Desktop\ZStack-CC2530-2.3.0-1.4.0\Pr #
#                          ojects\zstack\Samples\GenericApp\CC2530DB\EndDevic #
#                          eEB\List\Enddevice.lst                             #
#    Object file        =  C:\Users\acer\Desktop\ZStack-CC2530-2.3.0-1.4.0\Pr #
#                          ojects\zstack\Samples\GenericApp\CC2530DB\EndDevic #
#                          eEB\Obj\Enddevice.r51                              #
#                                                                             #
#                                                                             #
###############################################################################

C:\Users\acer\Desktop\ZStack-CC2530-2.3.0-1.4.0\Projects\zstack\Samples\GenericApp\Source\Enddevice.c
      1          /*>>>>>>>>>>>>>>>>>>>>>>>>>>>>>>>>>>>>>>>>>>>>>>>>>>>>>>>>>>>>>>>>>>>>>>>>>>>
      2          
      3          * 文件名  ：Enbddevice
      4          * 作者    ：Chenyetao
      5          * 版本    ：V0.0.1
      6          * 时间    ：2021/5/11
      7          * 描述    ：文件说明
      8          ********************************************************************
      9          * 副本
     10          *
     11          *>>>>>>>>>>>>>>>>>>>>>>>>>>>>>>>>>>>>>>>>>>>>>>>>>>>>>>>>>>>>>>>>>>>>>>>>>>>*/
     12          
     13          /* 头文件 ----------------------------------------------------------------*/
     14          #include "OSAL.h"
     15          #include "AF.h"
     16          #include "ZDApp.h"
     17          #include "ZDOBject.h"
     18          #include "ZDProfile.h"
     19          #include <string.h>
     20          #include "Coordinator.h"
     21          #include "DebugTrace.h"
     22          #if !defined( WIN32)
     23          #include "OnBoard.h"
     24          #endif
     25          #include "hal_lcd.h"
     26          #include "hal_led.h"
     27          #include "hal_key.h"
     28          #include "hal_uart.h"
     29          /* 宏定义 ----------------------------------------------------------------*/
     30          /* 结构体或枚举 ----------------------------------------------------------------*/
     31          /* 内部函数声明 ----------------------------------------------------------------*/
     32          void  GenericApp_MessageMSGCB(afIncomingMSGPacket_t *pckt);
     33          void  GenericApp_SendTheMessage(void);
     34          
     35          
     36          
     37          /* 函数 ----------------------------------------------------------------*/
     38          
     39          
     40          
     41          
     42          /*>>>>>>>>>>>>>>>>>>>>>>>>>>>>>>>>>>>>>>>>>>>>>>>>>>>>>>>>>>>>>>>>>>>>>>>>>>>
     43          * 文件名  ： GENERICAPP_MAX_CLUSTERS
     44          * 作者    ： chenyetao
     45          * 版本    ： V1.0.0
     46          * 时间    ： 2021/5/11
     47          * 简要    ： 宏定义，保持协议栈里数据的定义格式保持一致文件说明  
     48          ********************************************************************/

   \                                 In  segment XDATA_ROM_C, align 1
     49          const cId_t GenericApp_ClusterList[GENERICAPP_MAX_CLUSTERS ] = 
   \                     GenericApp_ClusterList:
   \   000000   0100         DW 1
     50          {
     51              GENERICAPP_CLUSTERID
     52          };
     53          
     54          //描述一个ZigBee的设备节点，固定格式

   \                                 In  segment XDATA_ROM_C, align 1
     55          const SimpleDescriptionFormat_t GenericApp_SimpleDesc = 
   \                     GenericApp_SimpleDesc:
   \   000000   0A           DB 10
   \   000001   040F         DW 3844
   \   000003   0100         DW 1
   \   000005   00           DB 0
   \   000006   00           DB 0
   \   000007   0000         DW 0H
   \   000009   01           DB 1
   \   00000A   ....         DW GenericApp_ClusterList
     56          {
     57              GENERICAPP_ENDPOINT,
     58              GENERICAPP_PROFID,
     59              GENERICAPP_DEVICEID,
     60              GENERICAPP_DEVICE_VERSION,
     61              GENERICAPP_FLAGS,
     62              0,
     63              (cId_t *)NULL,
     64              GENERICAPP_MAX_CLUSTERS,
     65              (cId_t *)GenericApp_ClusterList
     66          };
     67          

   \                                 In  segment XDATA_Z, align 1, keep-with-next
     68          endPointDesc_t GenericApp_epDesc;   //节点描述符
   \                     GenericApp_epDesc:
   \   000000                DS 6
   \   000006                REQUIRE __INIT_XDATA_Z

   \                                 In  segment XDATA_Z, align 1, keep-with-next
     69          byte GenericApp_TaskID;     //任务优先级
   \                     GenericApp_TaskID:
   \   000000                DS 1
   \   000001                REQUIRE __INIT_XDATA_Z

   \                                 In  segment XDATA_Z, align 1, keep-with-next
     70          byte GenericApp_TransID;    //数据发送数列号
   \                     GenericApp_TransID:
   \   000000                DS 1
   \   000001                REQUIRE __INIT_XDATA_Z

   \                                 In  segment XDATA_Z, align 1, keep-with-next
     71          devStates_t GenericApp_NwkState;    //保持节点状态变量
   \                     GenericApp_NwkState:
   \   000000                DS 1
   \   000001                REQUIRE __INIT_XDATA_Z
     72          
     73          
     74          

   \                                 In  segment BANKED_CODE, align 1, keep-with-next
     75          void GenericApp_Init( byte task_id )
   \                     GenericApp_Init:
     76          {
   \   000000   74F7         MOV     A,#-0x9
   \   000002   12....       LCALL   ?BANKED_ENTER_XDATA
   \   000005                ; Saved register size: 9
   \   000005                ; Auto size: 0
   \   000005   E9           MOV     A,R1
     77              GenericApp_TaskID   =   task_id;
   \   000006   90....       MOV     DPTR,#GenericApp_TaskID
   \   000009   F0           MOVX    @DPTR,A
     78              GenericApp_NwkState   =   DEV_INIT;
   \   00000A   90....       MOV     DPTR,#GenericApp_NwkState
   \   00000D   7401         MOV     A,#0x1
   \   00000F   F0           MOVX    @DPTR,A
     79              GenericApp_TransID    =   0;
   \   000010   90....       MOV     DPTR,#GenericApp_TransID
   \   000013   E4           CLR     A
   \   000014   F0           MOVX    @DPTR,A
     80              GenericApp_epDesc.endPoint    =   GENERICAPP_ENDPOINT;
   \   000015   90....       MOV     DPTR,#GenericApp_epDesc
   \   000018   740A         MOV     A,#0xa
   \   00001A   F0           MOVX    @DPTR,A
     81              GenericApp_epDesc.task_id   =   &GenericApp_TaskID;
   \   00001B   A3           INC     DPTR
   \   00001C   74..         MOV     A,#GenericApp_TaskID & 0xff
   \   00001E   F0           MOVX    @DPTR,A
   \   00001F   A3           INC     DPTR
   \   000020   74..         MOV     A,#(GenericApp_TaskID >> 8) & 0xff
   \   000022   F0           MOVX    @DPTR,A
     82              GenericApp_epDesc.simpleDesc    =   
     83                (SimpleDescriptionFormat_t *)&GenericApp_SimpleDesc;
   \   000023   A3           INC     DPTR
   \   000024   74..         MOV     A,#GenericApp_SimpleDesc & 0xff
   \   000026   F0           MOVX    @DPTR,A
   \   000027   A3           INC     DPTR
   \   000028   74..         MOV     A,#(GenericApp_SimpleDesc >> 8) & 0xff
   \   00002A   F0           MOVX    @DPTR,A
     84              GenericApp_epDesc.latencyReq    =   noLatencyReqs;
   \   00002B   A3           INC     DPTR
   \   00002C   E4           CLR     A
   \   00002D   F0           MOVX    @DPTR,A
     85              afRegister( &GenericApp_epDesc ); //
   \   00002E                ; Setup parameters for call to function afRegister
   \   00002E   7A..         MOV     R2,#GenericApp_epDesc & 0xff
   \   000030   7B..         MOV     R3,#(GenericApp_epDesc >> 8) & 0xff
   \   000032   12....       LCALL   ??afRegister?relay
     86          }
   \   000035   7F01         MOV     R7,#0x1
   \   000037   02....       LJMP    ?BANKED_LEAVE_XDATA
     87          
     88          /*>>>>>>>>>>>>>>>>>>>>>>>>>>>>>>>>>>>>>>>>>>>>>>>>>>>>>>>>>>>>>>>>>>>>>>>>>>>
     89          
     90          * 函数名  ：GenericApp_ProcessEvent
     91          * 参数    ：byte task_id,UNIT16 evens
     92          * 返回    ：UINT16
     93          * 作者    ：Chenli
     94          * 时间    ：2021/5/11
     95          * 描述    ：消息处理函数
     96          ----------------------------------------------------------------*/

   \                                 In  segment BANKED_CODE, align 1, keep-with-next
     97          UINT16 GenericApp_ProcessEvent( byte task_id, UINT16 events )
   \                     GenericApp_ProcessEvent:
     98          {
   \   000000   74F4         MOV     A,#-0xc
   \   000002   12....       LCALL   ?BANKED_ENTER_XDATA
   \   000005                ; Saved register size: 12
   \   000005                ; Auto size: 0
   \   000005   8A..         MOV     ?V0 + 0,R2
   \   000007   8B..         MOV     ?V0 + 1,R3
     99            afIncomingMSGPacket_t *MSGpkt;
    100            if ( events &SYS_EVENT_MSG )      //检索收到的命令，没有收到返回NULL
   \   000009   EB           MOV     A,R3
   \   00000A   5480         ANL     A,#0x80
   \   00000C   603C         JZ      ??GenericApp_ProcessEvent_0
    101            {
    102               MSGpkt = (afIncomingMSGPacket_t *)osal_msg_receive
    103                 (GenericApp_TaskID);
   \   00000E                ; Setup parameters for call to function osal_msg_receive
   \   00000E   801D         SJMP    ??GenericApp_ProcessEvent_1
    104               while ( MSGpkt )  //如果不为空时，判断消息的类型
    105               {
    106                  switch ( MSGpkt->hdr.event )
   \                     ??GenericApp_ProcessEvent_2:
   \   000010   8E82         MOV     DPL,R6
   \   000012   8F83         MOV     DPH,R7
   \   000014   E0           MOVX    A,@DPTR
   \   000015   64D1         XRL     A,#0xd1
   \   000017   700D         JNZ     ??GenericApp_ProcessEvent_3
    107                  {
    108                  case ZDO_STATE_CHANGE://加入网络后触发ZDO_STATE_CHANGE事件
    109                    GenericApp_NwkState = (devStates_t)(MSGpkt->hdr.
    110                    status);//获得当前的状态
   \   000019   A3           INC     DPTR
   \   00001A   E0           MOVX    A,@DPTR
   \   00001B   90....       MOV     DPTR,#GenericApp_NwkState
   \   00001E   F0           MOVX    @DPTR,A
    111                    if (GenericApp_NwkState ==DEV_END_DEVICE) //若是终端节点加入网络
   \   00001F   6406         XRL     A,#0x6
   \   000021   7003         JNZ     ??GenericApp_ProcessEvent_3
    112                    {
    113                      GenericApp_SendTheMessage() ;
   \   000023                ; Setup parameters for call to function GenericApp_SendTheMessage
   \   000023   12....       LCALL   ??GenericApp_SendTheMessage?relay
    114                    }
    115                    break;
    116                  default:
    117                    break;
    118                  }
    119                  osal_msg_deallocate( (uint8 *)MSGpkt );//释放内存
   \                     ??GenericApp_ProcessEvent_3:
   \   000026                ; Setup parameters for call to function osal_msg_deallocate
   \   000026   EE           MOV     A,R6
   \   000027   FA           MOV     R2,A
   \   000028   EF           MOV     A,R7
   \   000029   FB           MOV     R3,A
   \   00002A   12....       LCALL   ??osal_msg_deallocate?relay
    120                  MSGpkt = (afIncomingMSGPacket_t*)osal_msg_receive(GenericApp_TaskID );
   \   00002D                ; Setup parameters for call to function osal_msg_receive
   \                     ??GenericApp_ProcessEvent_1:
   \   00002D   90....       MOV     DPTR,#GenericApp_TaskID
   \   000030   E0           MOVX    A,@DPTR
   \   000031   F9           MOV     R1,A
   \   000032   12....       LCALL   ??osal_msg_receive?relay
   \   000035   8A..         MOV     ?V0 + 2,R2
   \   000037   8B..         MOV     ?V0 + 3,R3
   \   000039   AE..         MOV     R6,?V0 + 2
   \   00003B   AF..         MOV     R7,?V0 + 3
    121          }
   \   00003D   EE           MOV     A,R6
   \   00003E   4F           ORL     A,R7
   \   00003F   70CF         JNZ     ??GenericApp_ProcessEvent_2
    122                  return (events ^ SYS_EVENT_MSG);// 返回未处理的事件 
   \   000041   AA..         MOV     R2,?V0 + 0
   \   000043   E5..         MOV     A,?V0 + 1
   \   000045   6480         XRL     A,#0x80
   \   000047   FB           MOV     R3,A
   \   000048   8004         SJMP    ??GenericApp_ProcessEvent_4
    123            }
    124                   return 0;
   \                     ??GenericApp_ProcessEvent_0:
   \   00004A   7A00         MOV     R2,#0x0
   \   00004C   7B00         MOV     R3,#0x0
   \                     ??GenericApp_ProcessEvent_4:
   \   00004E   7F04         MOV     R7,#0x4
   \   000050   02....       LJMP    ?BANKED_LEAVE_XDATA
    125               }
    126          
    127          /*>>>>>>>>>>>>>>>>>>>>>>>>>>>>>>>>>>>>>>>>>>>>>>>>>>>>>>>>>>>>>>>>>>>>>>>>>>>
    128          
    129          * 函数名  ：GenericApp_SendTheMessage
    130          * 参数    ：void
    131          * 返回    ：void
    132          * 作者    ：Chenli
    133          * 时间    ：2021/5/11
    134          * 描述    ：接收消息判断
    135          ----------------------------------------------------------------*/

   \                                 In  segment BANKED_CODE, align 1, keep-with-next
    136          void  GenericApp_SendTheMessage(void)
   \                     GenericApp_SendTheMessage:
    137          {
   \   000000   74F6         MOV     A,#-0xa
   \   000002   12....       LCALL   ?BANKED_ENTER_XDATA
   \   000005                ; Saved register size: 10
   \   000005                ; Auto size: 16
   \   000005   74F0         MOV     A,#-0x10
   \   000007   12....       LCALL   ?ALLOC_XSTACK8
    138            unsigned char theMessageData[4] = "LED";//存放要发送的数据
   \   00000A   85..82       MOV     DPL,?XSP + 0
   \   00000D   85..83       MOV     DPH,?XSP + 1
   \   000010   AC82         MOV     R4,DPL
   \   000012   AD83         MOV     R5,DPH
   \   000014   7583..       MOV     DPH,#(`?<Constant "LED">` >> 8) & 0xff
   \   000017   7582..       MOV     DPL,#`?<Constant "LED">` & 0xff
   \   00001A   7404         MOV     A,#0x4
   \   00001C   12....       LCALL   ?MOVE_LONG8_XDATA_XDATA
    139                    afAddrType_t my_DstAddr;
    140                    my_DstAddr.addrMode = (afAddrMode_t)Addr16Bit;
   \   00001F   740C         MOV     A,#0xc
   \   000021   12....       LCALL   ?XSTACK_DISP0_8
   \   000024   7402         MOV     A,#0x2
   \   000026   F0           MOVX    @DPTR,A
    141                    my_DstAddr.endPoint = GENERICAPP_ENDPOINT;//初始化端口号
   \   000027   740D         MOV     A,#0xd
   \   000029   12....       LCALL   ?XSTACK_DISP0_8
   \   00002C   740A         MOV     A,#0xa
   \   00002E   F0           MOVX    @DPTR,A
    142                    my_DstAddr.addr.shortAddr = 0x0000;//直接指定协调器的网络地址
   \   00002F   7404         MOV     A,#0x4
   \   000031   12....       LCALL   ?XSTACK_DISP0_8
   \   000034   E4           CLR     A
   \   000035   F0           MOVX    @DPTR,A
   \   000036   A3           INC     DPTR
   \   000037   F0           MOVX    @DPTR,A
    143                    AF_DataRequest( &my_DstAddr,&GenericApp_epDesc,//调用数据发送函数AF_DataRequst进行无线数据的发送
    144                                   GENERICAPP_CLUSTERID,
    145                                    3,
    146                                    theMessageData,
    147                                    &GenericApp_TransID,//发送 ID
    148                                    AF_DISCV_ROUTE, 
    149                                    AF_DEFAULT_RADIUS);
   \   000038                ; Setup parameters for call to function AF_DataRequest
   \   000038   75..1E       MOV     ?V0 + 0,#0x1e
   \   00003B   78..         MOV     R0,#?V0 + 0
   \   00003D   12....       LCALL   ?PUSH_XSTACK_I_ONE
   \   000040   75....       MOV     ?V0 + 0,#GenericApp_TransID & 0xff
   \   000043   75....       MOV     ?V0 + 1,#(GenericApp_TransID >> 8) & 0xff
   \   000046   78..         MOV     R0,#?V0 + 0
   \   000048   12....       LCALL   ?PUSH_XSTACK_I_TWO
   \   00004B   7403         MOV     A,#0x3
   \   00004D   12....       LCALL   ?XSTACK_DISP0_8
   \   000050   8582..       MOV     ?V0 + 0,DPL
   \   000053   8583..       MOV     ?V0 + 1,DPH
   \   000056   78..         MOV     R0,#?V0 + 0
   \   000058   12....       LCALL   ?PUSH_XSTACK_I_TWO
   \   00005B   75..03       MOV     ?V0 + 0,#0x3
   \   00005E   75..00       MOV     ?V0 + 1,#0x0
   \   000061   78..         MOV     R0,#?V0 + 0
   \   000063   12....       LCALL   ?PUSH_XSTACK_I_TWO
   \   000066   75..01       MOV     ?V0 + 0,#0x1
   \   000069   78..         MOV     R0,#?V0 + 0
   \   00006B   12....       LCALL   ?PUSH_XSTACK_I_TWO
   \   00006E   7920         MOV     R1,#0x20
   \   000070   7C..         MOV     R4,#GenericApp_epDesc & 0xff
   \   000072   7D..         MOV     R5,#(GenericApp_epDesc >> 8) & 0xff
   \   000074   740D         MOV     A,#0xd
   \   000076   12....       LCALL   ?XSTACK_DISP0_8
   \   000079   AA82         MOV     R2,DPL
   \   00007B   AB83         MOV     R3,DPH
   \   00007D   12....       LCALL   ??AF_DataRequest?relay
   \   000080   7409         MOV     A,#0x9
   \   000082   12....       LCALL   ?DEALLOC_XSTACK8
    150                        HalLedBlink (HAL_LED_2,0,50,500);
   \   000085                ; Setup parameters for call to function HalLedBlink
   \   000085   7CF4         MOV     R4,#-0xc
   \   000087   7D01         MOV     R5,#0x1
   \   000089   7B32         MOV     R3,#0x32
   \   00008B   7A00         MOV     R2,#0x0
   \   00008D   7902         MOV     R1,#0x2
   \   00008F   12....       LCALL   ??HalLedBlink?relay
    151            ////使终端节点led2闪烁
    152            
    153          }
   \   000092   7410         MOV     A,#0x10
   \   000094   12....       LCALL   ?DEALLOC_XSTACK8
   \   000097   7F02         MOV     R7,#0x2
   \   000099   02....       LJMP    ?BANKED_LEAVE_XDATA

   \                                 In  segment BANK_RELAYS, align 1
   \                     ??GenericApp_Init?relay:
   \   000000   12....       LCALL   ?BDISPATCH
   \   000003   ......       DC24    GenericApp_Init

   \                                 In  segment BANK_RELAYS, align 1
   \                     ??GenericApp_ProcessEvent?relay:
   \   000000   12....       LCALL   ?BDISPATCH
   \   000003   ......       DC24    GenericApp_ProcessEvent

   \                                 In  segment BANK_RELAYS, align 1
   \                     ??GenericApp_SendTheMessage?relay:
   \   000000   12....       LCALL   ?BDISPATCH
   \   000003   ......       DC24    GenericApp_SendTheMessage

   \                                 In  segment XDATA_ROM_C, align 1
   \                     `?<Constant "LED">`:
   \   000000   4C454400     DB "LED"

   Maximum stack usage in bytes:

     Function                       ISTACK PSTACK XSTACK
     --------                       ------ ------ ------
     GenericApp_Init                    0      0      9
       -> afRegister                    0      0     18
     GenericApp_ProcessEvent            0      0     12
       -> osal_msg_receive              0      0     24
       -> GenericApp_SendTheMessage     0      0     24
       -> osal_msg_deallocate           0      0     24
       -> osal_msg_receive              0      0     24
     GenericApp_SendTheMessage          2      0     47
       -> AF_DataRequest                0      0     70
       -> HalLedBlink                   0      0     52


   Segment part sizes:

     Function/Label                    Bytes
     --------------                    -----
     GenericApp_ClusterList               2
     GenericApp_SimpleDesc               12
     GenericApp_epDesc                    6
     GenericApp_TaskID                    1
     GenericApp_TransID                   1
     GenericApp_NwkState                  1
     GenericApp_Init                     58
     GenericApp_ProcessEvent             83
     GenericApp_SendTheMessage          156
     ??GenericApp_Init?relay              6
     ??GenericApp_ProcessEvent?relay      6
     ??GenericApp_SendTheMessage?relay    6
     ?<Constant "LED">                    4

 
 297 bytes in segment BANKED_CODE
  18 bytes in segment BANK_RELAYS
  18 bytes in segment XDATA_ROM_C
   9 bytes in segment XDATA_Z
 
 315 bytes of CODE  memory
  18 bytes of CONST memory
   9 bytes of XDATA memory

Errors: none
Warnings: none
